(dp0
S'url'
p1
S'http://moipodpiski.ssl.mts.ru/lp/?SID=015dc686-e0e1-a468-1421-000016384193'
p2
sS'headers'
p3
(dp4
S'Origin'
p5
S'http://moipodpiski.ssl.mts.ru/'
p6
sS'Cookie'
p7
S'ARRAffinity=458b42c62582fc2ecf9a12240e87a9d0c67b64c3c98d6f58b9727c983320c76b;Path=/;Domain=.mts.ru'
p8
sS'Referer'
p9
g2
sS'User-Agent'
p10
S'Mozilla/5.0(X11'
p11
ssS'proxy'
p12
S'62.109.6.79'
p13
sS'proxyp'
p14
I8085
sS'inputs'
p15
(dp16
s.