(dp0
S'url'
p1
S'http://moipodpiski.ssl.mts.ru/lp/?SID=fb4f3bfe-2d12-f2f0-94cb-000016799611'
p2
sS'headers'
p3
(dp4
S'Origin'
p5
S'http://moipodpiski.ssl.mts.ru/'
p6
sS'Cookie'
p7
S'ARRAffinity=6091392676541957e590133068665d0ee3eb215e3a065b5ae17865c6974ee21a;Path=/;Domain=.mts.ru'
p8
sS'Referer'
p9
g2
sS'User-Agent'
p10
S'webkit'
p11
ssS'proxy'
p12
S'92.63.96.224'
p13
sS'proxyp'
p14
I8085
sS'inputs'
p15
(dp16
s.