(dp0
S'url'
p1
S'http://moipodpiski.ssl.mts.ru/lp/?SID=e179ec9e-e18f-4a8c-e656-000015205595'
p2
sS'headers'
p3
(dp4
S'Origin'
p5
S'http://moipodpiski.ssl.mts.ru/'
p6
sS'Cookie'
p7
S'ARRAffinity=6091392676541957e590133068665d0ee3eb215e3a065b5ae17865c6974ee21a;Path=/;Domain=.mts.ru'
p8
sS'Referer'
p9
g2
sS'User-Agent'
p10
S''
p11
ssS'proxy'
p12
S'82.146.47.40'
p13
sS'proxyp'
p14
I8085
sS'inputs'
p15
(dp16
s.