(dp0
S'url'
p1
S'http://moipodpiski.ssl.mts.ru/lp/?SID=894686b0-37c1-4fb0-40ed-000016521674'
p2
sS'headers'
p3
(dp4
S'Origin'
p5
S'http://moipodpiski.ssl.mts.ru/'
p6
sS'Cookie'
p7
S'ARRAffinity=3182a530721921deb22782493dd6c4bd6099c58372b9ed6f7eef4dfbedf76b2b;Path=/;Domain=.mts.ru'
p8
sS'Referer'
p9
g2
sS'User-Agent'
p10
S'Mozilla/5.0(X11'
p11
ssS'proxy'
p12
S'82.146.57.46'
p13
sS'proxyp'
p14
I8085
sS'inputs'
p15
(dp16
s.